target datalayout = "e-m:e-p270:32:32-p271:32:32-p272:64:64-i64:64-i128:128-f80:128-n8:16:32:64-S128"
target triple = "x86_64-pc-linux-gnu"

%"class.icu_77::ResourceTable" = type <{ ptr, ptr, ptr, ptr, i32, [4 x i8] }>

@_ZN12_GLOBAL__N_122gAvailableLocaleCountsE = internal global [2 x i32] zeroinitializer, align 4
@_ZN12_GLOBAL__N_121gAvailableLocaleNamesE = internal global [2 x ptr] zeroinitializer, align 16
@.str.4 = private unnamed_addr constant [17 x i8] c"InstalledLocales\00", align 1
@.str.5 = private unnamed_addr constant [13 x i8] c"AliasLocales\00", align 1

; Function Attrs: mustprogress nounwind uwtable
define linkonce_odr noundef i32 @_ZNK6icu_7713ResourceTable7getSizeEv(ptr noundef nonnull align 8 dereferenceable(37) %0) #6 comdat align 2 {
  %2 = alloca ptr, align 8
  store ptr %0, ptr %2, align 8, !tbaa !79
  %3 = load ptr, ptr %2, align 8
  %4 = getelementptr inbounds nuw %"class.icu_77::ResourceTable", ptr %3, i32 0, i32 4
  %5 = load i32, ptr %4, align 8, !tbaa !81
  ret i32 %5
}

; Function Attrs: inlinehint mustprogress nounwind uwtable
define internal noundef signext i8 @_ZL9U_FAILURE10UErrorCode(i32 noundef %0) #7 {
  %2 = alloca i32, align 4
  store i32 %0, ptr %2, align 4, !tbaa !31
  %3 = load i32, ptr %2, align 4, !tbaa !31
  %4 = icmp sgt i32 %3, 0
  %5 = zext i1 %4 to i8
  ret i8 %5
}

; Function Attrs: mustprogress uwtable
define internal void @_ZN12_GLOBAL__N_120AvailableLocalesSink3putEPKcRN6icu_7713ResourceValueEaR10UErrorCode(ptr noundef nonnull align 8 dereferenceable(8) %0, ptr noundef %1, ptr noundef nonnull align 8 dereferenceable(8) %2, i8 noundef signext %3, ptr noundef nonnull align 4 dereferenceable(4) %4) unnamed_addr #0 align 2 {
  %6 = alloca ptr, align 8
  %7 = alloca ptr, align 8
  %8 = alloca ptr, align 8
  %9 = alloca i8, align 1
  %10 = alloca ptr, align 8
  %11 = alloca %"class.icu_77::ResourceTable", align 8
  %12 = alloca i32, align 4
  %13 = alloca i32, align 4
  %14 = alloca i32, align 4
  %15 = alloca %"class.icu_77::ResourceTable", align 8
  %16 = alloca i32, align 4
  store ptr %0, ptr %6, align 8, !tbaa !64
  store ptr %1, ptr %7, align 8, !tbaa !15
  store ptr %2, ptr %8, align 8, !tbaa !72
  store i8 %3, ptr %9, align 1, !tbaa !74
  store ptr %4, ptr %10, align 8, !tbaa !21
  %17 = load ptr, ptr %10, align 8, !tbaa !21
  %18 = load i32, ptr %17, align 4, !tbaa !31
  %19 = call noundef signext i8 @_ZL9U_FAILURE10UErrorCode(i32 noundef %18)
  %20 = icmp ne i8 %19, 0
  br i1 %20, label %21, label %22

21:                                               ; preds = %5
  br label %117

22:                                               ; preds = %5
  call void @llvm.lifetime.start.p0(i64 40, ptr %11) #12
  %23 = load ptr, ptr %8, align 8, !tbaa !72
  %24 = load ptr, ptr %10, align 8, !tbaa !21
  %25 = load ptr, ptr %23, align 8, !tbaa !24
  %26 = getelementptr inbounds ptr, ptr %25, i64 11
  %27 = load ptr, ptr %26, align 8
  call void %27(ptr dead_on_unwind writable sret(%"class.icu_77::ResourceTable") align 8 %11, ptr noundef nonnull align 8 dereferenceable(8) %23, ptr noundef nonnull align 4 dereferenceable(4) %24)
  %28 = load ptr, ptr %10, align 8, !tbaa !21
  %29 = load i32, ptr %28, align 4, !tbaa !31
  %30 = call noundef signext i8 @_ZL9U_FAILURE10UErrorCode(i32 noundef %29)
  %31 = icmp ne i8 %30, 0
  br i1 %31, label %32, label %33

32:                                               ; preds = %22
  store i32 1, ptr %12, align 4
  br label %115

33:                                               ; preds = %22
  call void @llvm.lifetime.start.p0(i64 4, ptr %13) #12
  store i32 0, ptr %13, align 4, !tbaa !3
  br label %34

34:                                               ; preds = %109, %33
  %35 = load i32, ptr %13, align 4, !tbaa !3
  %36 = load ptr, ptr %8, align 8, !tbaa !72
  %37 = call noundef signext i8 @_ZNK6icu_7713ResourceTable14getKeyAndValueEiRPKcRNS_13ResourceValueE(ptr noundef nonnull align 8 dereferenceable(37) %11, i32 noundef %35, ptr noundef nonnull align 8 dereferenceable(8) %7, ptr noundef nonnull align 8 dereferenceable(8) %36)
  %38 = icmp ne i8 %37, 0
  br i1 %38, label %40, label %39

39:                                               ; preds = %34
  store i32 2, ptr %12, align 4
  br label %112

40:                                               ; preds = %34
  call void @llvm.lifetime.start.p0(i64 4, ptr %14) #12
  %41 = load ptr, ptr %7, align 8, !tbaa !15
  %42 = call i32 @strcmp(ptr noundef %41, ptr noundef @.str.4) #14
  %43 = icmp eq i32 %42, 0
  br i1 %43, label %44, label %45

44:                                               ; preds = %40
  store i32 0, ptr %14, align 4, !tbaa !29
  br label %52

45:                                               ; preds = %40
  %46 = load ptr, ptr %7, align 8, !tbaa !15
  %47 = call i32 @strcmp(ptr noundef %46, ptr noundef @.str.5) #14
  %48 = icmp eq i32 %47, 0
  br i1 %48, label %49, label %50

49:                                               ; preds = %45
  store i32 1, ptr %14, align 4, !tbaa !29
  br label %51

50:                                               ; preds = %45
  store i32 4, ptr %12, align 4
  br label %106

51:                                               ; preds = %49
  br label %52

52:                                               ; preds = %51, %44
  call void @llvm.lifetime.start.p0(i64 40, ptr %15) #12
  %53 = load ptr, ptr %8, align 8, !tbaa !72
  %54 = load ptr, ptr %10, align 8, !tbaa !21
  %55 = load ptr, ptr %53, align 8, !tbaa !24
  %56 = getelementptr inbounds ptr, ptr %55, i64 11
  %57 = load ptr, ptr %56, align 8
  call void %57(ptr dead_on_unwind writable sret(%"class.icu_77::ResourceTable") align 8 %15, ptr noundef nonnull align 8 dereferenceable(8) %53, ptr noundef nonnull align 4 dereferenceable(4) %54)
  %58 = load ptr, ptr %10, align 8, !tbaa !21
  %59 = load i32, ptr %58, align 4, !tbaa !31
  %60 = call noundef signext i8 @_ZL9U_FAILURE10UErrorCode(i32 noundef %59)
  %61 = icmp ne i8 %60, 0
  br i1 %61, label %62, label %63

62:                                               ; preds = %52
  store i32 1, ptr %12, align 4
  br label %105

63:                                               ; preds = %52
  %64 = call noundef i32 @_ZNK6icu_7713ResourceTable7getSizeEv(ptr noundef nonnull align 8 dereferenceable(37) %15)
  %65 = load i32, ptr %14, align 4, !tbaa !29
  %66 = zext i32 %65 to i64
  %67 = getelementptr inbounds nuw [2 x i32], ptr @_ZN12_GLOBAL__N_122gAvailableLocaleCountsE, i64 0, i64 %66
  store i32 %64, ptr %67, align 4, !tbaa !3
  %68 = load i32, ptr %14, align 4, !tbaa !29
  %69 = zext i32 %68 to i64
  %70 = getelementptr inbounds nuw [2 x i32], ptr @_ZN12_GLOBAL__N_122gAvailableLocaleCountsE, i64 0, i64 %69
  %71 = load i32, ptr %70, align 4, !tbaa !3
  %72 = sext i32 %71 to i64
  %73 = mul i64 %72, 8
  %74 = call noalias ptr @uprv_malloc_77(i64 noundef %73) #15
  %75 = load i32, ptr %14, align 4, !tbaa !29
  %76 = zext i32 %75 to i64
  %77 = getelementptr inbounds nuw [2 x ptr], ptr @_ZN12_GLOBAL__N_121gAvailableLocaleNamesE, i64 0, i64 %76
  store ptr %74, ptr %77, align 8, !tbaa !12
  %78 = load i32, ptr %14, align 4, !tbaa !29
  %79 = zext i32 %78 to i64
  %80 = getelementptr inbounds nuw [2 x ptr], ptr @_ZN12_GLOBAL__N_121gAvailableLocaleNamesE, i64 0, i64 %79
  %81 = load ptr, ptr %80, align 8, !tbaa !12
  %82 = icmp eq ptr %81, null
  br i1 %82, label %83, label %85

83:                                               ; preds = %63
  %84 = load ptr, ptr %10, align 8, !tbaa !21
  store i32 7, ptr %84, align 4, !tbaa !31
  store i32 1, ptr %12, align 4
  br label %105

85:                                               ; preds = %63
  call void @llvm.lifetime.start.p0(i64 4, ptr %16) #12
  store i32 0, ptr %16, align 4, !tbaa !3
  br label %86

86:                                               ; preds = %101, %85
  %87 = load i32, ptr %16, align 4, !tbaa !3
  %88 = load ptr, ptr %8, align 8, !tbaa !72
  %89 = call noundef signext i8 @_ZNK6icu_7713ResourceTable14getKeyAndValueEiRPKcRNS_13ResourceValueE(ptr noundef nonnull align 8 dereferenceable(37) %15, i32 noundef %87, ptr noundef nonnull align 8 dereferenceable(8) %7, ptr noundef nonnull align 8 dereferenceable(8) %88)
  %90 = icmp ne i8 %89, 0
  br i1 %90, label %92, label %91

91:                                               ; preds = %86
  store i32 5, ptr %12, align 4
  call void @llvm.lifetime.end.p0(i64 4, ptr %16) #12
  br label %104

92:                                               ; preds = %86
  %93 = load ptr, ptr %7, align 8, !tbaa !15
  %94 = load i32, ptr %14, align 4, !tbaa !29
  %95 = zext i32 %94 to i64
  %96 = getelementptr inbounds nuw [2 x ptr], ptr @_ZN12_GLOBAL__N_121gAvailableLocaleNamesE, i64 0, i64 %95
  %97 = load ptr, ptr %96, align 8, !tbaa !12
  %98 = load i32, ptr %16, align 4, !tbaa !3
  %99 = sext i32 %98 to i64
  %100 = getelementptr inbounds ptr, ptr %97, i64 %99
  store ptr %93, ptr %100, align 8, !tbaa !15
  br label %101

101:                                              ; preds = %92
  %102 = load i32, ptr %16, align 4, !tbaa !3
  %103 = add nsw i32 %102, 1
  store i32 %103, ptr %16, align 4, !tbaa !3
  br label %86, !llvm.loop !75

104:                                              ; preds = %91
  store i32 0, ptr %12, align 4
  br label %105

105:                                              ; preds = %104, %83, %62
  call void @llvm.lifetime.end.p0(i64 40, ptr %15) #12
  br label %106

106:                                              ; preds = %105, %50
  call void @llvm.lifetime.end.p0(i64 4, ptr %14) #12
  %107 = load i32, ptr %12, align 4
  switch i32 %107, label %112 [
    i32 0, label %108
    i32 4, label %109
  ]

108:                                              ; preds = %106
  br label %109

109:                                              ; preds = %108, %106
  %110 = load i32, ptr %13, align 4, !tbaa !3
  %111 = add nsw i32 %110, 1
  store i32 %111, ptr %13, align 4, !tbaa !3
  br label %34, !llvm.loop !76

112:                                              ; preds = %106, %39
  call void @llvm.lifetime.end.p0(i64 4, ptr %13) #12
  %113 = load i32, ptr %12, align 4
  switch i32 %113, label %115 [
    i32 2, label %114
  ]

114:                                              ; preds = %112
  store i32 0, ptr %12, align 4
  br label %115

115:                                              ; preds = %114, %112, %32
  call void @llvm.lifetime.end.p0(i64 40, ptr %11) #12
  %116 = load i32, ptr %12, align 4
  switch i32 %116, label %118 [
    i32 0, label %117
    i32 1, label %117
  ]

117:                                              ; preds = %21, %115, %115
  ret void

118:                                              ; preds = %115
  unreachable
}