; Function Attrs: mustprogress uwtable
define internal void @_ZN12_GLOBAL__N_120AvailableLocalesSink3putEPKcRN6icu_7713ResourceValueEaR10UErrorCode(ptr nonnull readnone align 8 captures(none) %0, ptr noundef %1, ptr noundef nonnull align 8 dereferenceable(8) %2, i8 signext %3, ptr noundef nonnull align 4 dereferenceable(4) %4) unnamed_addr #0 align 2 {
  %6 = alloca ptr, align 8
  %7 = alloca %"class.icu_77::ResourceTable", align 8
  %8 = alloca %"class.icu_77::ResourceTable", align 8
  store ptr %1, ptr %6, align 8, !tbaa !18
  %9 = load i32, ptr %4, align 4, !tbaa !22
  %10 = icmp slt i32 %9, 1
  br i1 %10, label %11, label %49

11:                                               ; preds = %5
  call void @llvm.lifetime.start.p0(i64 40, ptr nonnull %7) #14
  %12 = load ptr, ptr %2, align 8, !tbaa !3
  %13 = getelementptr inbounds nuw i8, ptr %12, i64 88
  %14 = load ptr, ptr %13, align 8
  call void %14(ptr dead_on_unwind nonnull writable sret(%"class.icu_77::ResourceTable") align 8 %7, ptr noundef nonnull align 8 dereferenceable(8) %2, ptr noundef nonnull align 4 dereferenceable(4) %4)
  %15 = load i32, ptr %4, align 4, !tbaa !22
  %16 = icmp slt i32 %15, 1
  br i1 %16, label %.preheader31, label %.loopexit

.preheader31:                                     ; preds = %11
  %17 = call noundef signext i8 @_ZNK6icu_7713ResourceTable14getKeyAndValueEiRPKcRNS_13ResourceValueE(ptr noundef nonnull align 8 dereferenceable(37) %7, i32 noundef 0, ptr noundef nonnull align 8 dereferenceable(8) %6, ptr noundef nonnull align 8 dereferenceable(8) %2)
  %.not2534 = icmp eq i8 %17, 0
  br i1 %.not2534, label %.loopexit, label %.lr.ph36

.lr.ph36:                                         ; preds = %.preheader31
  %18 = getelementptr inbounds nuw i8, ptr %8, i64 32
  br label %19

19:                                               ; preds = %.lr.ph36, %.thread
  %.02235 = phi i32 [ 0, %.lr.ph36 ], [ %47, %.thread ]
  %20 = load ptr, ptr %6, align 8, !tbaa !18
  %21 = call i32 @strcmp(ptr noundef nonnull dereferenceable(1) %20, ptr noundef nonnull dereferenceable(17) @.str.4) #16
  %22 = icmp eq i32 %21, 0
  br i1 %22, label %26, label %23

23:                                               ; preds = %19
  %24 = call i32 @strcmp(ptr noundef nonnull dereferenceable(1) %20, ptr noundef nonnull dereferenceable(13) @.str.5) #16
  %25 = icmp eq i32 %24, 0
  br i1 %25, label %26, label %.thread

26:                                               ; preds = %23, %19
  %.021 = phi i64 [ 0, %19 ], [ 1, %23 ]
  call void @llvm.lifetime.start.p0(i64 40, ptr nonnull %8) #14
  %27 = load ptr, ptr %2, align 8, !tbaa !3
  %28 = getelementptr inbounds nuw i8, ptr %27, i64 88
  %29 = load ptr, ptr %28, align 8
  call void %29(ptr dead_on_unwind nonnull writable sret(%"class.icu_77::ResourceTable") align 8 %8, ptr noundef nonnull align 8 dereferenceable(8) %2, ptr noundef nonnull align 4 dereferenceable(4) %4)
  %30 = load i32, ptr %4, align 4, !tbaa !22
  %31 = icmp slt i32 %30, 1
  br i1 %31, label %32, label %.thread29

32:                                               ; preds = %26
  %33 = load i32, ptr %18, align 8, !tbaa !38
  %34 = getelementptr inbounds nuw [2 x i32], ptr @_ZN12_GLOBAL__N_122gAvailableLocaleCountsE, i64 0, i64 %.021
  store i32 %33, ptr %34, align 4, !tbaa !10
  %35 = sext i32 %33 to i64
  %36 = shl nsw i64 %35, 3
  %37 = call noalias ptr @uprv_malloc_77(i64 noundef %36) #17
  %38 = getelementptr inbounds nuw [2 x ptr], ptr @_ZN12_GLOBAL__N_121gAvailableLocaleNamesE, i64 0, i64 %.021
  store ptr %37, ptr %38, align 8, !tbaa !15
  %39 = icmp eq ptr %37, null
  br i1 %39, label %41, label %.preheader

.preheader:                                       ; preds = %32
  %40 = call noundef signext i8 @_ZNK6icu_7713ResourceTable14getKeyAndValueEiRPKcRNS_13ResourceValueE(ptr noundef nonnull align 8 dereferenceable(37) %8, i32 noundef 0, ptr noundef nonnull align 8 dereferenceable(8) %6, ptr noundef nonnull align 8 dereferenceable(8) %2)
  %.not2732 = icmp eq i8 %40, 0
  br i1 %.not2732, label %._crit_edge, label %.lr.ph

41:                                               ; preds = %32
  store i32 7, ptr %4, align 4, !tbaa !22
  br label %.thread29

.lr.ph:                                           ; preds = %.preheader, %.lr.ph
  %indvars.iv = phi i64 [ %indvars.iv.next, %.lr.ph ], [ 0, %.preheader ]
  %42 = load ptr, ptr %6, align 8, !tbaa !18
  %43 = load ptr, ptr %38, align 8, !tbaa !15
  %44 = getelementptr inbounds nuw ptr, ptr %43, i64 %indvars.iv
  store ptr %42, ptr %44, align 8, !tbaa !18
  %indvars.iv.next = add nuw nsw i64 %indvars.iv, 1
  %45 = trunc nuw nsw i64 %indvars.iv.next to i32
  %46 = call noundef signext i8 @_ZNK6icu_7713ResourceTable14getKeyAndValueEiRPKcRNS_13ResourceValueE(ptr noundef nonnull align 8 dereferenceable(37) %8, i32 noundef %45, ptr noundef nonnull align 8 dereferenceable(8) %6, ptr noundef nonnull align 8 dereferenceable(8) %2)
  %.not27 = icmp eq i8 %46, 0
  br i1 %.not27, label %._crit_edge, label %.lr.ph, !llvm.loop !43

.thread29:                                        ; preds = %26, %41
  call void @llvm.lifetime.end.p0(i64 40, ptr nonnull %8) #14
  br label %.loopexit

._crit_edge:                                      ; preds = %.lr.ph, %.preheader
  call void @llvm.lifetime.end.p0(i64 40, ptr nonnull %8) #14
  br label %.thread

.thread:                                          ; preds = %23, %._crit_edge
  %47 = add nuw nsw i32 %.02235, 1
  %48 = call noundef signext i8 @_ZNK6icu_7713ResourceTable14getKeyAndValueEiRPKcRNS_13ResourceValueE(ptr noundef nonnull align 8 dereferenceable(37) %7, i32 noundef %47, ptr noundef nonnull align 8 dereferenceable(8) %6, ptr noundef nonnull align 8 dereferenceable(8) %2)
  %.not25 = icmp eq i8 %48, 0
  br i1 %.not25, label %.loopexit, label %19, !llvm.loop !44

.loopexit:                                        ; preds = %.thread, %.preheader31, %.thread29, %11
  call void @llvm.lifetime.end.p0(i64 40, ptr nonnull %7) #14
  br label %49

49:                                               ; preds = %5, %.loopexit
  ret void
}